; Function Attrs: mustprogress uwtable
define hidden void @_ZN15fpa_decl_plugin11recycled_idEj(ptr noundef nonnull align 8 dereferenceable(1008) %this, i32 noundef %id) local_unnamed_addr #3 align 2 {
entry:
  %id.addr = alloca i32, align 4
  store i32 %id, ptr %id.addr, align 4
  %m_value_table = getelementptr inbounds i8, ptr %this, i64 896
  call void @_ZN10chashtableIjN15fpa_decl_plugin13mpf_hash_procENS0_11mpf_eq_procEE5eraseERKj(ptr noundef nonnull align 8 dereferenceable(80) %m_value_table, ptr noundef nonnull align 4 dereferenceable(4) %id.addr)
  %0 = load i32, ptr %id.addr, align 4
  %call.i = call noundef zeroext i1 @_ZN6memory16is_out_of_memoryEv()
  br i1 %call.i, label %_ZN6id_gen7recycleEj.exit, label %if.end.i

if.end.i:                                         ; preds = %entry
  %m_free_ids.i = getelementptr inbounds i8, ptr %this, i64 872
  %1 = load ptr, ptr %m_free_ids.i, align 8
  %cmp.i.i = icmp eq ptr %1, null
  br i1 %cmp.i.i, label %if.then.i.i, label %lor.lhs.false.i.i

lor.lhs.false.i.i:                                ; preds = %if.end.i
  %arrayidx.i.i = getelementptr inbounds i8, ptr %1, i64 -4
  %2 = load i32, ptr %arrayidx.i.i, align 4
  %arrayidx4.i.i = getelementptr inbounds i8, ptr %1, i64 -8
  %3 = load i32, ptr %arrayidx4.i.i, align 4
  %cmp5.i.i = icmp eq i32 %2, %3
  br i1 %cmp5.i.i, label %if.then.i.i, label %_ZN6vectorIjLb0EjE9push_backERKj.exit.i

if.then.i.i:                                      ; preds = %lor.lhs.false.i.i, %if.end.i
  call void @_ZN6vectorIjLb0EjE13expand_vectorEv(ptr noundef nonnull align 8 dereferenceable(8) %m_free_ids.i)
  %.pre.i.i = load ptr, ptr %m_free_ids.i, align 8
  %arrayidx8.phi.trans.insert.i.i = getelementptr inbounds i8, ptr %.pre.i.i, i64 -4
  %.pre1.i.i = load i32, ptr %arrayidx8.phi.trans.insert.i.i, align 4
  br label %_ZN6vectorIjLb0EjE9push_backERKj.exit.i

_ZN6vectorIjLb0EjE9push_backERKj.exit.i:          ; preds = %if.then.i.i, %lor.lhs.false.i.i
  %4 = phi i32 [ %.pre1.i.i, %if.then.i.i ], [ %2, %lor.lhs.false.i.i ]
  %5 = phi ptr [ %.pre.i.i, %if.then.i.i ], [ %1, %lor.lhs.false.i.i ]
  %idx.ext.i.i = zext i32 %4 to i64
  %add.ptr.i.i = getelementptr inbounds i32, ptr %5, i64 %idx.ext.i.i
  store i32 %0, ptr %add.ptr.i.i, align 4
  %6 = load ptr, ptr %m_free_ids.i, align 8
  %arrayidx10.i.i = getelementptr inbounds i8, ptr %6, i64 -4
  %7 = load i32, ptr %arrayidx10.i.i, align 4
  %inc.i.i = add i32 %7, 1
  store i32 %inc.i.i, ptr %arrayidx10.i.i, align 4
  br label %_ZN6id_gen7recycleEj.exit

_ZN6id_gen7recycleEj.exit:                        ; preds = %entry, %_ZN6vectorIjLb0EjE9push_backERKj.exit.i
  %m_values = getelementptr inbounds i8, ptr %this, i64 880
  %8 = load i32, ptr %id.addr, align 4
  %9 = load ptr, ptr %m_values, align 8
  %idxprom.i = zext i32 %8 to i64
  %m_mpz_manager.i = getelementptr inbounds i8, ptr %this, i64 752
  %10 = load ptr, ptr %m_mpz_manager.i, align 8
  %significand.i = getelementptr inbounds %class.mpf, ptr %9, i64 %idxprom.i, i32 1
  call void @_ZN11mpz_managerILb0EE3delEPS0_R3mpz(ptr noundef nonnull %10, ptr noundef nonnull align 8 dereferenceable(16) %significand.i)
  ret void
}